; Function Attrs: nounwind uwtable
define void @png_set_progressive_read_fn(ptr noalias noundef %0, ptr noundef %1, ptr noundef %2, ptr noundef %3, ptr noundef %4) local_unnamed_addr #0 {
  %6 = icmp eq ptr %0, null
  br i1 %6, label %11, label %7

7:                                                ; preds = %5
  %8 = getelementptr inbounds i8, ptr %0, i64 784
  store ptr %2, ptr %8, align 8
  %9 = getelementptr inbounds i8, ptr %0, i64 792
  store ptr %3, ptr %9, align 8
  %10 = getelementptr inbounds i8, ptr %0, i64 800
  store ptr %4, ptr %10, align 8
  tail call void @png_set_read_fn(ptr noundef nonnull %0, ptr noundef %1, ptr noundef nonnull @png_push_fill_buffer) #11
  br label %11

11:                                               ; preds = %5, %7
  ret void
}